; Function Attrs: nounwind uwtable
define internal range(i32 -22, 1) i32 @kvag_write_init(ptr noundef %0) #1 {
  %2 = getelementptr inbounds nuw i8, ptr %0, i64 48
  %3 = load ptr, ptr %2, align 8, !tbaa !46
  %4 = load ptr, ptr %3, align 8, !tbaa !47
  %5 = getelementptr inbounds nuw i8, ptr %4, i64 16
  %6 = load ptr, ptr %5, align 8, !tbaa !27
  %7 = getelementptr inbounds nuw i8, ptr %6, i64 132
  %8 = load i32, ptr %7, align 4, !tbaa !42
  %9 = icmp sgt i32 %8, 2
  br i1 %9, label %10, label %11

10:                                               ; preds = %1
  tail call void (ptr, i32, ptr, ...) @av_log(ptr noundef nonnull %0, i32 noundef 16, ptr noundef nonnull @.str.4) #4
  br label %18

11:                                               ; preds = %1
  %12 = getelementptr inbounds nuw i8, ptr %0, i64 32
  %13 = load ptr, ptr %12, align 8, !tbaa !12
  %14 = getelementptr inbounds nuw i8, ptr %13, i64 144
  %15 = load i32, ptr %14, align 8, !tbaa !52
  %16 = and i32 %15, 1
  %.not = icmp eq i32 %16, 0
  br i1 %.not, label %17, label %18

17:                                               ; preds = %11
  tail call void (ptr, i32, ptr, ...) @av_log(ptr noundef nonnull %0, i32 noundef 24, ptr noundef nonnull @.str.5) #4
  br label %18

18:                                               ; preds = %11, %17, %10
  %.0 = phi i32 [ -22, %10 ], [ -22, %17 ], [ 0, %11 ]
  ret i32 %.0
}